target datalayout = "e-m:e-p270:32:32-p271:32:32-p272:64:64-i64:64-i128:128-f80:128-n8:16:32:64-S128"
target triple = "x86_64-pc-linux-gnu"

@.str.594 = private unnamed_addr constant [13 x i8] c"Wrong length\00", align 1
@.str.885 = private unnamed_addr constant [54 x i8] c"Normal ending of command with info from proactive SIM\00", align 1
@.str.886 = private unnamed_addr constant [60 x i8] c"Length of the response data given / SIM data download error\00", align 1
@.str.887 = private unnamed_addr constant [42 x i8] c"Length of the response data, Length is %u\00", align 1
@.str.888 = private unnamed_addr constant [52 x i8] c"Command successful but after internal retry routine\00", align 1
@.str.889 = private unnamed_addr constant [38 x i8] c"Response ready, Response length is %u\00", align 1
@.str.890 = private unnamed_addr constant [23 x i8] c"Incorrect parameter P3\00", align 1
@.str.891 = private unnamed_addr constant [66 x i8] c"Terminal should repeat command, Length for repeated command is %u\00", align 1
@.str.892 = private unnamed_addr constant [25 x i8] c"Unknown instruction code\00", align 1
@.str.893 = private unnamed_addr constant [24 x i8] c"Wrong instruction class\00", align 1
@.str.894 = private unnamed_addr constant [37 x i8] c"Technical problem with no diagnostic\00", align 1
@.str.895 = private unnamed_addr constant [26 x i8] c"Unknown status word: %04x\00", align 1

; Function Attrs: null_pointer_is_valid sspstrong uwtable
define internal ptr @get_sw_string(ptr noundef %0, i16 noundef zeroext %1) #0 {
  %3 = alloca ptr, align 8
  %4 = alloca ptr, align 8
  %5 = alloca i16, align 2
  %6 = alloca i8, align 1
  %7 = alloca i8, align 1
  %8 = alloca i32, align 4
  store ptr %0, ptr %4, align 8
  store i16 %1, ptr %5, align 2
  call void @llvm.lifetime.start.p0(i64 1, ptr %6) #3
  %9 = load i16, ptr %5, align 2
  %10 = zext i16 %9 to i32
  %11 = ashr i32 %10, 8
  %12 = trunc i32 %11 to i8
  store i8 %12, ptr %6, align 1
  call void @llvm.lifetime.start.p0(i64 1, ptr %7) #3
  %13 = load i16, ptr %5, align 2
  %14 = zext i16 %13 to i32
  %15 = and i32 %14, 255
  %16 = trunc i32 %15 to i8
  store i8 %16, ptr %7, align 1
  %17 = load i8, ptr %6, align 1
  %18 = zext i8 %17 to i32
  switch i32 %18, label %52 [
    i32 145, label %19
    i32 158, label %20
    i32 159, label %21
    i32 146, label %26
    i32 97, label %33
    i32 103, label %38
    i32 108, label %44
    i32 109, label %49
    i32 110, label %50
    i32 111, label %51
  ]

19:                                               ; preds = %2
  store ptr @.str.885, ptr %3, align 8
  store i32 1, ptr %8, align 4
  br label %56

20:                                               ; preds = %2
  store ptr @.str.886, ptr %3, align 8
  store i32 1, ptr %8, align 4
  br label %56

21:                                               ; preds = %2
  %22 = load ptr, ptr %4, align 8
  %23 = load i8, ptr %7, align 1
  %24 = zext i8 %23 to i32
  %25 = call noalias ptr (ptr, ptr, ...) @wmem_strdup_printf(ptr noundef %22, ptr noundef @.str.887, i32 noundef %24)
  store ptr %25, ptr %3, align 8
  store i32 1, ptr %8, align 4
  br label %56

26:                                               ; preds = %2
  %27 = load i16, ptr %5, align 2
  %28 = zext i16 %27 to i32
  %29 = and i32 %28, 240
  %30 = icmp eq i32 %29, 0
  br i1 %30, label %31, label %32

31:                                               ; preds = %26
  store ptr @.str.888, ptr %3, align 8
  store i32 1, ptr %8, align 4
  br label %56

32:                                               ; preds = %26
  br label %52

33:                                               ; preds = %2
  %34 = load ptr, ptr %4, align 8
  %35 = load i8, ptr %7, align 1
  %36 = zext i8 %35 to i32
  %37 = call noalias ptr (ptr, ptr, ...) @wmem_strdup_printf(ptr noundef %34, ptr noundef @.str.889, i32 noundef %36)
  store ptr %37, ptr %3, align 8
  store i32 1, ptr %8, align 4
  br label %56

38:                                               ; preds = %2
  %39 = load i8, ptr %7, align 1
  %40 = zext i8 %39 to i32
  %41 = icmp eq i32 %40, 0
  br i1 %41, label %42, label %43

42:                                               ; preds = %38
  store ptr @.str.594, ptr %3, align 8
  store i32 1, ptr %8, align 4
  br label %56

43:                                               ; preds = %38
  store ptr @.str.890, ptr %3, align 8
  store i32 1, ptr %8, align 4
  br label %56

44:                                               ; preds = %2
  %45 = load ptr, ptr %4, align 8
  %46 = load i8, ptr %7, align 1
  %47 = zext i8 %46 to i32
  %48 = call noalias ptr (ptr, ptr, ...) @wmem_strdup_printf(ptr noundef %45, ptr noundef @.str.891, i32 noundef %47)
  store ptr %48, ptr %3, align 8
  store i32 1, ptr %8, align 4
  br label %56

49:                                               ; preds = %2
  store ptr @.str.892, ptr %3, align 8
  store i32 1, ptr %8, align 4
  br label %56

50:                                               ; preds = %2
  store ptr @.str.893, ptr %3, align 8
  store i32 1, ptr %8, align 4
  br label %56

51:                                               ; preds = %2
  store ptr @.str.894, ptr %3, align 8
  store i32 1, ptr %8, align 4
  br label %56

52:                                               ; preds = %2, %32
  %53 = load i16, ptr %5, align 2
  %54 = zext i16 %53 to i32
  %55 = call ptr @val_to_str(i32 noundef %54, ptr noundef @sw_vals, ptr noundef @.str.895)
  store ptr %55, ptr %3, align 8
  store i32 1, ptr %8, align 4
  br label %56

56:                                               ; preds = %52, %51, %50, %49, %44, %43, %42, %33, %31, %21, %20, %19
  call void @llvm.lifetime.end.p0(i64 1, ptr %7) #3
  call void @llvm.lifetime.end.p0(i64 1, ptr %6) #3
  %57 = load ptr, ptr %3, align 8
  ret ptr %57
}