; Function Attrs: null_pointer_is_valid sspstrong uwtable
define internal fastcc ptr @get_sw_string(ptr noundef %0, i16 noundef zeroext %1) unnamed_addr #0 {
  %3 = zext i16 %1 to i32
  %4 = lshr i16 %1, 8
  %trunc = trunc nuw i16 %4 to i8
  switch i8 %trunc, label %24 [
    i8 -111, label %26
    i8 -98, label %5
    i8 -97, label %6
    i8 -110, label %10
    i8 97, label %13
    i8 103, label %16
    i8 108, label %18
    i8 109, label %21
    i8 110, label %22
    i8 111, label %23
  ]

5:                                                ; preds = %2
  br label %26

6:                                                ; preds = %2
  %7 = and i16 %1, 255
  %8 = zext nneg i16 %7 to i32
  %9 = tail call noalias ptr (ptr, ptr, ...) @wmem_strdup_printf(ptr noundef %0, ptr noundef nonnull @.str.887, i32 noundef %8)
  br label %26

10:                                               ; preds = %2
  %11 = and i32 %3, 240
  %12 = icmp eq i32 %11, 0
  br i1 %12, label %26, label %24

13:                                               ; preds = %2
  %.mask13 = and i16 %1, 255
  %14 = zext nneg i16 %.mask13 to i32
  %15 = tail call noalias ptr (ptr, ptr, ...) @wmem_strdup_printf(ptr noundef %0, ptr noundef nonnull @.str.889, i32 noundef %14)
  br label %26

16:                                               ; preds = %2
  %.mask12 = and i16 %1, 255
  %17 = icmp eq i16 %.mask12, 0
  %.str.594..str.890 = select i1 %17, ptr @.str.594, ptr @.str.890
  br label %26

18:                                               ; preds = %2
  %.mask = and i16 %1, 255
  %19 = zext nneg i16 %.mask to i32
  %20 = tail call noalias ptr (ptr, ptr, ...) @wmem_strdup_printf(ptr noundef %0, ptr noundef nonnull @.str.891, i32 noundef %19)
  br label %26

21:                                               ; preds = %2
  br label %26

22:                                               ; preds = %2
  br label %26

23:                                               ; preds = %2
  br label %26

24:                                               ; preds = %10, %2
  %25 = tail call ptr @val_to_str(i32 noundef %3, ptr noundef nonnull @sw_vals, ptr noundef nonnull @.str.895)
  br label %26

26:                                               ; preds = %16, %10, %2, %24, %23, %22, %21, %18, %13, %6, %5
  %.0 = phi ptr [ %25, %24 ], [ @.str.894, %23 ], [ @.str.893, %22 ], [ @.str.892, %21 ], [ %20, %18 ], [ %15, %13 ], [ %9, %6 ], [ @.str.886, %5 ], [ @.str.885, %2 ], [ @.str.888, %10 ], [ %.str.594..str.890, %16 ]
  ret ptr %.0
}